target datalayout = "e-m:e-p270:32:32-p271:32:32-p272:64:64-i64:64-i128:128-f80:128-n8:16:32:64-S128"
target triple = "x86_64-pc-linux-gnu"

%struct.expert_field = type { i32, i32 }
%struct.ext_value_string_t = type { i32, ptr, i32 }

@ansi_a_elem_1_max = internal global i32 0, align 4
@ansi_a_elem_1_strings = global ptr null, align 8
@.str.282 = private unnamed_addr constant [1 x i8] zeroinitializer, align 1
@ei_ansi_a_extraneous_data = internal global %struct.expert_field zeroinitializer, align 4
@hf_ansi_a_elem_id = internal global i32 0, align 4
@.str.1003 = private unnamed_addr constant [5 x i8] c"%s%s\00", align 1

; Function Attrs: null_pointer_is_valid sspstrong uwtable
define internal zeroext i16 @elem_t(ptr noundef %0, ptr noundef %1, ptr noundef %2, i32 noundef %3, i32 noundef %4, ptr noundef %5, ptr noundef %6) #1 {
  %8 = alloca i16, align 2
  %9 = alloca ptr, align 8
  %10 = alloca ptr, align 8
  %11 = alloca ptr, align 8
  %12 = alloca i32, align 4
  %13 = alloca i32, align 4
  %14 = alloca ptr, align 8
  %15 = alloca ptr, align 8
  %16 = alloca i8, align 1
  %17 = alloca i32, align 4
  %18 = alloca i16, align 2
  %19 = alloca i32, align 4
  store ptr %0, ptr %9, align 8
  store ptr %1, ptr %10, align 8
  store ptr %2, ptr %11, align 8
  store i32 %3, ptr %12, align 4
  store i32 %4, ptr %13, align 4
  store ptr %5, ptr %14, align 8
  store ptr %6, ptr %15, align 8
  call void @llvm.lifetime.start.p0(i64 1, ptr %16) #8
  call void @llvm.lifetime.start.p0(i64 4, ptr %17) #8
  call void @llvm.lifetime.start.p0(i64 2, ptr %18) #8
  %20 = load i32, ptr %13, align 4
  store i32 %20, ptr %17, align 4
  store i16 0, ptr %18, align 2
  %21 = load i32, ptr %12, align 4
  %22 = icmp slt i32 %21, 0
  br i1 %22, label %28, label %23

23:                                               ; preds = %7
  %24 = load i32, ptr %12, align 4
  %25 = load i32, ptr @ansi_a_elem_1_max, align 4
  %26 = sub i32 %25, 1
  %27 = icmp uge i32 %24, %26
  br i1 %27, label %28, label %33

28:                                               ; preds = %23, %7
  %29 = load ptr, ptr %9, align 8
  %30 = load i32, ptr %13, align 4
  %31 = call i32 @tvb_reported_length_remaining(ptr noundef %29, i32 noundef %30)
  %32 = trunc i32 %31 to i16
  store i16 %32, ptr %8, align 2
  store i32 1, ptr %19, align 4
  br label %77

33:                                               ; preds = %23
  %34 = load ptr, ptr %9, align 8
  %35 = load i32, ptr %17, align 4
  %36 = call zeroext i8 @tvb_get_uint8(ptr noundef %34, i32 noundef %35)
  store i8 %36, ptr %16, align 1
  %37 = load i8, ptr %16, align 1
  %38 = zext i8 %37 to i32
  %39 = load ptr, ptr @ansi_a_elem_1_strings, align 8
  %40 = load i32, ptr %12, align 4
  %41 = zext i32 %40 to i64
  %42 = getelementptr %struct.ext_value_string_t, ptr %39, i64 %41
  %43 = getelementptr inbounds nuw %struct.ext_value_string_t, ptr %42, i32 0, i32 0
  %44 = load i32, ptr %43, align 8
  %45 = trunc i32 %44 to i8
  %46 = zext i8 %45 to i32
  %47 = icmp eq i32 %38, %46
  br i1 %47, label %48, label %75

48:                                               ; preds = %33
  %49 = load ptr, ptr %11, align 8
  %50 = load i32, ptr @hf_ansi_a_elem_id, align 4
  %51 = load ptr, ptr %9, align 8
  %52 = load i32, ptr %17, align 4
  %53 = load i8, ptr %16, align 1
  %54 = zext i8 %53 to i32
  %55 = load ptr, ptr @ansi_a_elem_1_strings, align 8
  %56 = load i32, ptr %12, align 4
  %57 = zext i32 %56 to i64
  %58 = getelementptr %struct.ext_value_string_t, ptr %55, i64 %57
  %59 = getelementptr inbounds nuw %struct.ext_value_string_t, ptr %58, i32 0, i32 1
  %60 = load ptr, ptr %59, align 8
  %61 = load ptr, ptr %14, align 8
  %62 = icmp eq ptr %61, null
  br i1 %62, label %69, label %63

63:                                               ; preds = %48
  %64 = load ptr, ptr %14, align 8
  %65 = getelementptr i8, ptr %64, i64 0
  %66 = load i8, ptr %65, align 1
  %67 = sext i8 %66 to i32
  %68 = icmp eq i32 %67, 0
  br i1 %68, label %69, label %70

69:                                               ; preds = %63, %48
  br label %72

70:                                               ; preds = %63
  %71 = load ptr, ptr %14, align 8
  br label %72

72:                                               ; preds = %70, %69
  %73 = phi ptr [ @.str.282, %69 ], [ %71, %70 ]
  %74 = call ptr (ptr, i32, ptr, i32, i32, i32, ptr, ...) @proto_tree_add_uint_format(ptr noundef %49, i32 noundef %50, ptr noundef %51, i32 noundef %52, i32 noundef 1, i32 noundef %54, ptr noundef @.str.1003, ptr noundef %60, ptr noundef %73)
  store i16 1, ptr %18, align 2
  br label %75

75:                                               ; preds = %72, %33
  %76 = load i16, ptr %18, align 2
  store i16 %76, ptr %8, align 2
  store i32 1, ptr %19, align 4
  br label %77

77:                                               ; preds = %75, %28
  call void @llvm.lifetime.end.p0(i64 2, ptr %18) #8
  call void @llvm.lifetime.end.p0(i64 4, ptr %17) #8
  call void @llvm.lifetime.end.p0(i64 1, ptr %16) #8
  %78 = load i16, ptr %8, align 2
  ret i16 %78
}

; Function Attrs: null_pointer_is_valid sspstrong uwtable
define internal void @bsmap_priv_mode_complete(ptr noundef %0, ptr noundef %1, ptr noundef %2, i32 noundef %3, i32 noundef %4, ptr noundef %5) #1 {
  %7 = alloca ptr, align 8
  %8 = alloca ptr, align 8
  %9 = alloca ptr, align 8
  %10 = alloca i32, align 4
  %11 = alloca i32, align 4
  %12 = alloca ptr, align 8
  %13 = alloca i32, align 4
  %14 = alloca i32, align 4
  %15 = alloca i32, align 4
  %16 = alloca i32, align 4
  store ptr %0, ptr %7, align 8
  store ptr %1, ptr %8, align 8
  store ptr %2, ptr %9, align 8
  store i32 %3, ptr %10, align 4
  store i32 %4, ptr %11, align 4
  store ptr %5, ptr %12, align 8
  call void @llvm.lifetime.start.p0(i64 4, ptr %13) #8
  call void @llvm.lifetime.start.p0(i64 4, ptr %14) #8
  call void @llvm.lifetime.start.p0(i64 4, ptr %15) #8
  %17 = load i32, ptr %10, align 4
  store i32 %17, ptr %13, align 4
  %18 = load i32, ptr %11, align 4
  store i32 %18, ptr %15, align 4
  %19 = load ptr, ptr %7, align 8
  %20 = load ptr, ptr %8, align 8
  %21 = load ptr, ptr %9, align 8
  %22 = load i32, ptr %13, align 4
  %23 = load i32, ptr %15, align 4
  %24 = load ptr, ptr %12, align 8
  %25 = call zeroext i16 @elem_tlv(ptr noundef %19, ptr noundef %20, ptr noundef %21, i32 noundef 28, i32 noundef %22, i32 noundef %23, ptr noundef @.str.282, ptr noundef %24)
  %26 = zext i16 %25 to i32
  store i32 %26, ptr %14, align 4
  %27 = icmp ugt i32 %26, 0
  br i1 %27, label %28, label %35

28:                                               ; preds = %6
  %29 = load i32, ptr %14, align 4
  %30 = load i32, ptr %13, align 4
  %31 = add i32 %30, %29
  store i32 %31, ptr %13, align 4
  %32 = load i32, ptr %14, align 4
  %33 = load i32, ptr %15, align 4
  %34 = sub i32 %33, %32
  store i32 %34, ptr %15, align 4
  br label %35

35:                                               ; preds = %28, %6
  %36 = load i32, ptr %15, align 4
  %37 = icmp ule i32 %36, 0
  br i1 %37, label %38, label %39

38:                                               ; preds = %35
  store i32 1, ptr %16, align 4
  br label %75

39:                                               ; preds = %35
  %40 = load ptr, ptr %7, align 8
  %41 = load ptr, ptr %8, align 8
  %42 = load ptr, ptr %9, align 8
  %43 = load i32, ptr %13, align 4
  %44 = load ptr, ptr %12, align 8
  %45 = call zeroext i16 @elem_t(ptr noundef %40, ptr noundef %41, ptr noundef %42, i32 noundef 82, i32 noundef %43, ptr noundef @.str.282, ptr noundef %44)
  %46 = zext i16 %45 to i32
  store i32 %46, ptr %14, align 4
  %47 = icmp ugt i32 %46, 0
  br i1 %47, label %48, label %55

48:                                               ; preds = %39
  %49 = load i32, ptr %14, align 4
  %50 = load i32, ptr %13, align 4
  %51 = add i32 %50, %49
  store i32 %51, ptr %13, align 4
  %52 = load i32, ptr %14, align 4
  %53 = load i32, ptr %15, align 4
  %54 = sub i32 %53, %52
  store i32 %54, ptr %15, align 4
  br label %55

55:                                               ; preds = %48, %39
  %56 = load i32, ptr %15, align 4
  %57 = icmp ule i32 %56, 0
  br i1 %57, label %58, label %59

58:                                               ; preds = %55
  store i32 1, ptr %16, align 4
  br label %75

59:                                               ; preds = %55
  %60 = load i32, ptr %15, align 4
  %61 = icmp ugt i32 %60, 0
  br i1 %61, label %62, label %74

62:                                               ; preds = %59
  %63 = load ptr, ptr %9, align 8
  %64 = load ptr, ptr %8, align 8
  %65 = load ptr, ptr %7, align 8
  %66 = load i32, ptr %13, align 4
  %67 = load i32, ptr %15, align 4
  %68 = sub i32 %67, 0
  %69 = call ptr @proto_tree_add_expert(ptr noundef %63, ptr noundef %64, ptr noundef @ei_ansi_a_extraneous_data, ptr noundef %65, i32 noundef %66, i32 noundef %68)
  %70 = load i32, ptr %15, align 4
  %71 = sub i32 %70, 0
  %72 = load i32, ptr %13, align 4
  %73 = add i32 %72, %71
  store i32 %73, ptr %13, align 4
  br label %74

74:                                               ; preds = %62, %59
  store i32 0, ptr %16, align 4
  br label %75

75:                                               ; preds = %74, %58, %38
  call void @llvm.lifetime.end.p0(i64 4, ptr %15) #8
  call void @llvm.lifetime.end.p0(i64 4, ptr %14) #8
  call void @llvm.lifetime.end.p0(i64 4, ptr %13) #8
  %76 = load i32, ptr %16, align 4
  switch i32 %76, label %78 [
    i32 0, label %77
    i32 1, label %77
  ]

77:                                               ; preds = %75, %75
  ret void

78:                                               ; preds = %75
  unreachable
}