; Function Attrs: null_pointer_is_valid sspstrong uwtable
define internal void @bsmap_priv_mode_complete(ptr noundef %0, ptr noundef %1, ptr noundef %2, i32 noundef %3, i32 noundef %4, ptr noundef %5) #1 {
  %7 = tail call fastcc zeroext i16 @elem_tlv(ptr noundef %0, ptr noundef %1, ptr noundef %2, i32 noundef 28, i32 noundef %3, ptr noundef nonnull @.str.282, ptr noundef %5)
  %8 = zext i16 %7 to i32
  %9 = add i32 %3, %8
  %10 = icmp eq i32 %4, %8
  br i1 %10, label %36, label %11

11:                                               ; preds = %6
  %12 = load i32, ptr @ansi_a_elem_1_max, align 4
  %13 = add i32 %12, -84
  %.not.i = icmp ult i32 %13, -83
  br i1 %.not.i, label %17, label %14

14:                                               ; preds = %11
  %15 = tail call i32 @tvb_reported_length_remaining(ptr noundef %0, i32 noundef %9)
  %16 = and i32 %15, 65535
  br label %elem_t.exit

17:                                               ; preds = %11
  %18 = tail call zeroext i8 @tvb_get_uint8(ptr noundef %0, i32 noundef %9)
  %19 = load ptr, ptr @ansi_a_elem_1_strings, align 8
  %20 = getelementptr i8, ptr %19, i64 1968
  %21 = load i32, ptr %20, align 8
  %22 = trunc i32 %21 to i8
  %23 = icmp eq i8 %18, %22
  br i1 %23, label %24, label %elem_t.exit

24:                                               ; preds = %17
  %25 = zext i8 %18 to i32
  %26 = load i32, ptr @hf_ansi_a_elem_id, align 4
  %27 = getelementptr i8, ptr %19, i64 1976
  %28 = load ptr, ptr %27, align 8
  %29 = tail call ptr (ptr, i32, ptr, i32, i32, i32, ptr, ...) @proto_tree_add_uint_format(ptr noundef %2, i32 noundef %26, ptr noundef %0, i32 noundef %9, i32 noundef 1, i32 noundef %25, ptr noundef nonnull @.str.1003, ptr noundef %28, ptr noundef nonnull @.str.282)
  br label %elem_t.exit

elem_t.exit:                                      ; preds = %14, %17, %24
  %.018.i = phi i32 [ %16, %14 ], [ 1, %24 ], [ 0, %17 ]
  %30 = add nuw nsw i32 %.018.i, %8
  %31 = icmp eq i32 %4, %30
  br i1 %31, label %36, label %32

32:                                               ; preds = %elem_t.exit
  %33 = sub i32 %4, %30
  %34 = add i32 %.018.i, %9
  %35 = tail call ptr @proto_tree_add_expert(ptr noundef %2, ptr noundef %1, ptr noundef nonnull @ei_ansi_a_extraneous_data, ptr noundef %0, i32 noundef %34, i32 noundef %33)
  br label %36

36:                                               ; preds = %elem_t.exit, %6, %32
  ret void
}